target datalayout = "e-m:e-p270:32:32-p271:32:32-p272:64:64-i64:64-i128:128-f80:128-n8:16:32:64-S128"
target triple = "x86_64-pc-linux-gnu"

%struct.ShutdownInformation = type { ptr, ptr }
%struct.ParallelSlot = type { i32, ptr, ptr, ptr, i32, i32, i32, i32, i32 }
%struct._archiveHandle = type { %struct.Archive, i32, ptr, ptr, i64, i64, i32, %struct.sqlparseInfo, i64, i32, ptr, i64, i64, i64, ptr, ptr, ptr, ptr, ptr, ptr, ptr, ptr, ptr, ptr, ptr, ptr, ptr, ptr, ptr, ptr, ptr, ptr, ptr, ptr, ptr, ptr, ptr, ptr, ptr, ptr, ptr, ptr, ptr, ptr, i32, i32, i8, i32, i8, i32, ptr, ptr, ptr, ptr, i32, i32, ptr, ptr, ptr, %struct.pg_compress_specification, i8, i32, i32, ptr, ptr, ptr, ptr, ptr, i32, ptr, i64, i64, i32, i32, i32, i32, ptr, ptr }
%struct.Archive = type { ptr, ptr, i32, ptr, i32, i8, i32, i32, i32, ptr, i32, i8, ptr, ptr, i8, i32, ptr }
%struct.sqlparseInfo = type { i32, i8, ptr }
%struct.pg_compress_specification = type { i32, i32, i32, i32, i8, ptr }
%struct.ParallelState = type { i32, ptr, ptr }

; Function Attrs: nounwind uwtable
define internal zeroext i1 @HasEveryWorkerTerminated(ptr noundef %0) #0 {
  %2 = alloca i1, align 1
  %3 = alloca ptr, align 8
  %4 = alloca i32, align 4
  %5 = alloca i32, align 4
  store ptr %0, ptr %3, align 8
  call void @llvm.lifetime.start.p0(i64 4, ptr %4) #10
  store i32 0, ptr %4, align 4
  br label %6

6:                                                ; preds = %34, %1
  %7 = load i32, ptr %4, align 4
  %8 = load ptr, ptr %3, align 8
  %9 = getelementptr inbounds nuw %struct.ParallelState, ptr %8, i32 0, i32 0
  %10 = load i32, ptr %9, align 8
  %11 = icmp slt i32 %7, %10
  br i1 %11, label %12, label %37

12:                                               ; preds = %6
  %13 = load ptr, ptr %3, align 8
  %14 = getelementptr inbounds nuw %struct.ParallelState, ptr %13, i32 0, i32 2
  %15 = load ptr, ptr %14, align 8
  %16 = load i32, ptr %4, align 4
  %17 = sext i32 %16 to i64
  %18 = getelementptr inbounds %struct.ParallelSlot, ptr %15, i64 %17
  %19 = getelementptr inbounds nuw %struct.ParallelSlot, ptr %18, i32 0, i32 0
  %20 = load i32, ptr %19, align 8
  %21 = icmp eq i32 %20, 1
  br i1 %21, label %32, label %22

22:                                               ; preds = %12
  %23 = load ptr, ptr %3, align 8
  %24 = getelementptr inbounds nuw %struct.ParallelState, ptr %23, i32 0, i32 2
  %25 = load ptr, ptr %24, align 8
  %26 = load i32, ptr %4, align 4
  %27 = sext i32 %26 to i64
  %28 = getelementptr inbounds %struct.ParallelSlot, ptr %25, i64 %27
  %29 = getelementptr inbounds nuw %struct.ParallelSlot, ptr %28, i32 0, i32 0
  %30 = load i32, ptr %29, align 8
  %31 = icmp eq i32 %30, 2
  br i1 %31, label %32, label %33

32:                                               ; preds = %22, %12
  store i1 false, ptr %2, align 1
  store i32 1, ptr %5, align 4
  br label %38

33:                                               ; preds = %22
  br label %34

34:                                               ; preds = %33
  %35 = load i32, ptr %4, align 4
  %36 = add i32 %35, 1
  store i32 %36, ptr %4, align 4
  br label %6, !llvm.loop !19

37:                                               ; preds = %6
  store i1 true, ptr %2, align 1
  store i32 1, ptr %5, align 4
  br label %38

38:                                               ; preds = %37, %32
  call void @llvm.lifetime.end.p0(i64 4, ptr %4) #10
  %39 = load i1, ptr %2, align 1
  ret i1 %39
}

; Function Attrs: nounwind uwtable
define internal void @WaitForTerminatingWorkers(ptr noundef %0) #0 {
  %2 = alloca ptr, align 8
  %3 = alloca ptr, align 8
  %4 = alloca i32, align 4
  %5 = alloca i32, align 4
  %6 = alloca i32, align 4
  store ptr %0, ptr %2, align 8
  br label %7

7:                                                ; preds = %38, %1
  %8 = load ptr, ptr %2, align 8
  %9 = call zeroext i1 @HasEveryWorkerTerminated(ptr noundef %8)
  %10 = xor i1 %9, true
  br i1 %10, label %11, label %47

11:                                               ; preds = %7
  call void @llvm.lifetime.start.p0(i64 8, ptr %3) #10
  store ptr null, ptr %3, align 8
  call void @llvm.lifetime.start.p0(i64 4, ptr %4) #10
  call void @llvm.lifetime.start.p0(i64 4, ptr %5) #10
  call void @llvm.lifetime.start.p0(i64 4, ptr %6) #10
  %12 = call i32 @wait(ptr noundef %5)
  store i32 %12, ptr %6, align 4
  store i32 0, ptr %4, align 4
  br label %13

13:                                               ; preds = %35, %11
  %14 = load i32, ptr %4, align 4
  %15 = load ptr, ptr %2, align 8
  %16 = getelementptr inbounds nuw %struct.ParallelState, ptr %15, i32 0, i32 0
  %17 = load i32, ptr %16, align 8
  %18 = icmp slt i32 %14, %17
  br i1 %18, label %19, label %38

19:                                               ; preds = %13
  %20 = load ptr, ptr %2, align 8
  %21 = getelementptr inbounds nuw %struct.ParallelState, ptr %20, i32 0, i32 2
  %22 = load ptr, ptr %21, align 8
  %23 = load i32, ptr %4, align 4
  %24 = sext i32 %23 to i64
  %25 = getelementptr inbounds %struct.ParallelSlot, ptr %22, i64 %24
  store ptr %25, ptr %3, align 8
  %26 = load ptr, ptr %3, align 8
  %27 = getelementptr inbounds nuw %struct.ParallelSlot, ptr %26, i32 0, i32 8
  %28 = load i32, ptr %27, align 8
  %29 = load i32, ptr %6, align 4
  %30 = icmp eq i32 %28, %29
  br i1 %30, label %31, label %34

31:                                               ; preds = %19
  %32 = load ptr, ptr %3, align 8
  %33 = getelementptr inbounds nuw %struct.ParallelSlot, ptr %32, i32 0, i32 8
  store i32 0, ptr %33, align 8
  br label %38

34:                                               ; preds = %19
  br label %35

35:                                               ; preds = %34
  %36 = load i32, ptr %4, align 4
  %37 = add i32 %36, 1
  store i32 %37, ptr %4, align 4
  br label %13, !llvm.loop !10

38:                                               ; preds = %31, %13
  %39 = load ptr, ptr %3, align 8
  %40 = getelementptr inbounds nuw %struct.ParallelSlot, ptr %39, i32 0, i32 0
  store i32 3, ptr %40, align 8
  %41 = load ptr, ptr %2, align 8
  %42 = getelementptr inbounds nuw %struct.ParallelState, ptr %41, i32 0, i32 1
  %43 = load ptr, ptr %42, align 8
  %44 = load i32, ptr %4, align 4
  %45 = sext i32 %44 to i64
  %46 = getelementptr inbounds ptr, ptr %43, i64 %45
  store ptr null, ptr %46, align 8
  call void @llvm.lifetime.end.p0(i64 4, ptr %6) #10
  call void @llvm.lifetime.end.p0(i64 4, ptr %5) #10
  call void @llvm.lifetime.end.p0(i64 4, ptr %4) #10
  call void @llvm.lifetime.end.p0(i64 8, ptr %3) #10
  br label %7, !llvm.loop !11

47:                                               ; preds = %7
  ret void
}

; Function Attrs: nounwind uwtable
define internal void @ShutdownWorkersHard(ptr noundef %0) #0 {
  %2 = alloca ptr, align 8
  %3 = alloca i32, align 4
  %4 = alloca i32, align 4
  store ptr %0, ptr %2, align 8
  call void @llvm.lifetime.start.p0(i64 4, ptr %3) #10
  store i32 0, ptr %3, align 4
  br label %5

5:                                                ; preds = %21, %1
  %6 = load i32, ptr %3, align 4
  %7 = load ptr, ptr %2, align 8
  %8 = getelementptr inbounds nuw %struct.ParallelState, ptr %7, i32 0, i32 0
  %9 = load i32, ptr %8, align 8
  %10 = icmp slt i32 %6, %9
  br i1 %10, label %11, label %24

11:                                               ; preds = %5
  %12 = load ptr, ptr %2, align 8
  %13 = getelementptr inbounds nuw %struct.ParallelState, ptr %12, i32 0, i32 2
  %14 = load ptr, ptr %13, align 8
  %15 = load i32, ptr %3, align 4
  %16 = sext i32 %15 to i64
  %17 = getelementptr inbounds %struct.ParallelSlot, ptr %14, i64 %16
  %18 = getelementptr inbounds nuw %struct.ParallelSlot, ptr %17, i32 0, i32 5
  %19 = load i32, ptr %18, align 4
  %20 = call i32 @close(i32 noundef %19)
  br label %21

21:                                               ; preds = %11
  %22 = load i32, ptr %3, align 4
  %23 = add i32 %22, 1
  store i32 %23, ptr %3, align 4
  br label %5, !llvm.loop !16

24:                                               ; preds = %5
  store i32 0, ptr %3, align 4
  br label %25

25:                                               ; preds = %46, %24
  %26 = load i32, ptr %3, align 4
  %27 = load ptr, ptr %2, align 8
  %28 = getelementptr inbounds nuw %struct.ParallelState, ptr %27, i32 0, i32 0
  %29 = load i32, ptr %28, align 8
  %30 = icmp slt i32 %26, %29
  br i1 %30, label %31, label %49

31:                                               ; preds = %25
  call void @llvm.lifetime.start.p0(i64 4, ptr %4) #10
  %32 = load ptr, ptr %2, align 8
  %33 = getelementptr inbounds nuw %struct.ParallelState, ptr %32, i32 0, i32 2
  %34 = load ptr, ptr %33, align 8
  %35 = load i32, ptr %3, align 4
  %36 = sext i32 %35 to i64
  %37 = getelementptr inbounds %struct.ParallelSlot, ptr %34, i64 %36
  %38 = getelementptr inbounds nuw %struct.ParallelSlot, ptr %37, i32 0, i32 8
  %39 = load i32, ptr %38, align 8
  store i32 %39, ptr %4, align 4
  %40 = load i32, ptr %4, align 4
  %41 = icmp ne i32 %40, 0
  br i1 %41, label %42, label %45

42:                                               ; preds = %31
  %43 = load i32, ptr %4, align 4
  %44 = call i32 @kill(i32 noundef %43, i32 noundef 15) #10
  br label %45

45:                                               ; preds = %42, %31
  call void @llvm.lifetime.end.p0(i64 4, ptr %4) #10
  br label %46

46:                                               ; preds = %45
  %47 = load i32, ptr %3, align 4
  %48 = add i32 %47, 1
  store i32 %48, ptr %3, align 4
  br label %25, !llvm.loop !17

49:                                               ; preds = %25
  %50 = load ptr, ptr %2, align 8
  call void @WaitForTerminatingWorkers(ptr noundef %50)
  call void @llvm.lifetime.end.p0(i64 4, ptr %3) #10
  ret void
}

; Function Attrs: nounwind uwtable
define internal ptr @GetMyPSlot(ptr noundef %0) #0 {
  %2 = alloca ptr, align 8
  %3 = alloca ptr, align 8
  %4 = alloca i32, align 4
  %5 = alloca i32, align 4
  store ptr %0, ptr %3, align 8
  call void @llvm.lifetime.start.p0(i64 4, ptr %4) #10
  store i32 0, ptr %4, align 4
  br label %6

6:                                                ; preds = %31, %1
  %7 = load i32, ptr %4, align 4
  %8 = load ptr, ptr %3, align 8
  %9 = getelementptr inbounds nuw %struct.ParallelState, ptr %8, i32 0, i32 0
  %10 = load i32, ptr %9, align 8
  %11 = icmp slt i32 %7, %10
  br i1 %11, label %12, label %34

12:                                               ; preds = %6
  %13 = load ptr, ptr %3, align 8
  %14 = getelementptr inbounds nuw %struct.ParallelState, ptr %13, i32 0, i32 2
  %15 = load ptr, ptr %14, align 8
  %16 = load i32, ptr %4, align 4
  %17 = sext i32 %16 to i64
  %18 = getelementptr inbounds %struct.ParallelSlot, ptr %15, i64 %17
  %19 = getelementptr inbounds nuw %struct.ParallelSlot, ptr %18, i32 0, i32 8
  %20 = load i32, ptr %19, align 8
  %21 = call i32 @getpid() #10
  %22 = icmp eq i32 %20, %21
  br i1 %22, label %23, label %30

23:                                               ; preds = %12
  %24 = load ptr, ptr %3, align 8
  %25 = getelementptr inbounds nuw %struct.ParallelState, ptr %24, i32 0, i32 2
  %26 = load ptr, ptr %25, align 8
  %27 = load i32, ptr %4, align 4
  %28 = sext i32 %27 to i64
  %29 = getelementptr inbounds %struct.ParallelSlot, ptr %26, i64 %28
  store ptr %29, ptr %2, align 8
  store i32 1, ptr %5, align 4
  br label %35

30:                                               ; preds = %12
  br label %31

31:                                               ; preds = %30
  %32 = load i32, ptr %4, align 4
  %33 = add i32 %32, 1
  store i32 %33, ptr %4, align 4
  br label %6, !llvm.loop !15

34:                                               ; preds = %6
  store ptr null, ptr %2, align 8
  store i32 1, ptr %5, align 4
  br label %35

35:                                               ; preds = %34, %23
  call void @llvm.lifetime.end.p0(i64 4, ptr %4) #10
  %36 = load ptr, ptr %2, align 8
  ret ptr %36
}

; Function Attrs: nounwind uwtable
define internal void @archive_close_connection(i32 noundef %0, ptr noundef %1) #0 {
  %3 = alloca i32, align 4
  %4 = alloca ptr, align 8
  %5 = alloca ptr, align 8
  %6 = alloca ptr, align 8
  store i32 %0, ptr %3, align 4
  store ptr %1, ptr %4, align 8
  call void @llvm.lifetime.start.p0(i64 8, ptr %5) #10
  %7 = load ptr, ptr %4, align 8
  store ptr %7, ptr %5, align 8
  %8 = load ptr, ptr %5, align 8
  %9 = getelementptr inbounds nuw %struct.ShutdownInformation, ptr %8, i32 0, i32 0
  %10 = load ptr, ptr %9, align 8
  %11 = icmp ne ptr %10, null
  br i1 %11, label %12, label %44

12:                                               ; preds = %2
  call void @llvm.lifetime.start.p0(i64 8, ptr %6) #10
  %13 = load ptr, ptr %5, align 8
  %14 = getelementptr inbounds nuw %struct.ShutdownInformation, ptr %13, i32 0, i32 0
  %15 = load ptr, ptr %14, align 8
  %16 = call ptr @GetMyPSlot(ptr noundef %15)
  store ptr %16, ptr %6, align 8
  %17 = load ptr, ptr %6, align 8
  %18 = icmp ne ptr %17, null
  br i1 %18, label %32, label %19

19:                                               ; preds = %12
  %20 = load ptr, ptr %5, align 8
  %21 = getelementptr inbounds nuw %struct.ShutdownInformation, ptr %20, i32 0, i32 0
  %22 = load ptr, ptr %21, align 8
  call void @ShutdownWorkersHard(ptr noundef %22)
  %23 = load ptr, ptr %5, align 8
  %24 = getelementptr inbounds nuw %struct.ShutdownInformation, ptr %23, i32 0, i32 1
  %25 = load ptr, ptr %24, align 8
  %26 = icmp ne ptr %25, null
  br i1 %26, label %27, label %31

27:                                               ; preds = %19
  %28 = load ptr, ptr %5, align 8
  %29 = getelementptr inbounds nuw %struct.ShutdownInformation, ptr %28, i32 0, i32 1
  %30 = load ptr, ptr %29, align 8
  call void @DisconnectDatabase(ptr noundef %30)
  br label %31

31:                                               ; preds = %27, %19
  br label %43

32:                                               ; preds = %12
  %33 = load ptr, ptr %6, align 8
  %34 = getelementptr inbounds nuw %struct.ParallelSlot, ptr %33, i32 0, i32 3
  %35 = load ptr, ptr %34, align 8
  %36 = icmp ne ptr %35, null
  br i1 %36, label %37, label %42

37:                                               ; preds = %32
  %38 = load ptr, ptr %6, align 8
  %39 = getelementptr inbounds nuw %struct.ParallelSlot, ptr %38, i32 0, i32 3
  %40 = load ptr, ptr %39, align 8
  %41 = getelementptr inbounds nuw %struct._archiveHandle, ptr %40, i32 0, i32 0
  call void @DisconnectDatabase(ptr noundef %41)
  br label %42

42:                                               ; preds = %37, %32
  br label %43

43:                                               ; preds = %42, %31
  call void @llvm.lifetime.end.p0(i64 8, ptr %6) #10
  br label %54

44:                                               ; preds = %2
  %45 = load ptr, ptr %5, align 8
  %46 = getelementptr inbounds nuw %struct.ShutdownInformation, ptr %45, i32 0, i32 1
  %47 = load ptr, ptr %46, align 8
  %48 = icmp ne ptr %47, null
  br i1 %48, label %49, label %53

49:                                               ; preds = %44
  %50 = load ptr, ptr %5, align 8
  %51 = getelementptr inbounds nuw %struct.ShutdownInformation, ptr %50, i32 0, i32 1
  %52 = load ptr, ptr %51, align 8
  call void @DisconnectDatabase(ptr noundef %52)
  br label %53

53:                                               ; preds = %49, %44
  br label %54

54:                                               ; preds = %53, %43
  call void @llvm.lifetime.end.p0(i64 8, ptr %5) #10
  ret void
}