; Function Attrs: nounwind uwtable
define internal void @archive_close_connection(i32 %0, ptr noundef readonly captures(none) %1) #1 {
  %3 = alloca i32, align 4
  %4 = load ptr, ptr %1, align 8
  %.not = icmp eq ptr %4, null
  br i1 %.not, label %77, label %5

5:                                                ; preds = %2
  %6 = load i32, ptr %4, align 8
  %7 = icmp sgt i32 %6, 0
  br i1 %7, label %.lr.ph.i, label %GetMyPSlot.exit.thread

.lr.ph.i:                                         ; preds = %5
  %8 = getelementptr inbounds nuw i8, ptr %4, i64 16
  br label %13

9:                                                ; preds = %13
  %indvars.iv.next.i = add nuw nsw i64 %indvars.iv.i, 1
  %10 = load i32, ptr %4, align 8
  %11 = sext i32 %10 to i64
  %12 = icmp slt i64 %indvars.iv.next.i, %11
  br i1 %12, label %13, label %GetMyPSlot.exit.thread, !llvm.loop !4

13:                                               ; preds = %9, %.lr.ph.i
  %indvars.iv.i = phi i64 [ 0, %.lr.ph.i ], [ %indvars.iv.next.i, %9 ]
  %14 = load ptr, ptr %8, align 8
  %15 = getelementptr inbounds nuw %struct.ParallelSlot, ptr %14, i64 %indvars.iv.i, i32 8
  %16 = load i32, ptr %15, align 8
  %17 = tail call i32 @getpid() #18
  %18 = icmp eq i32 %16, %17
  br i1 %18, label %GetMyPSlot.exit, label %9

GetMyPSlot.exit:                                  ; preds = %13
  %19 = load ptr, ptr %8, align 8
  %.not16 = icmp eq ptr %19, null
  br i1 %.not16, label %GetMyPSlot.exit.thread, label %73

GetMyPSlot.exit.thread:                           ; preds = %9, %5, %GetMyPSlot.exit
  %20 = load ptr, ptr %1, align 8
  %21 = load i32, ptr %20, align 8
  %22 = icmp sgt i32 %21, 0
  br i1 %22, label %.lr.ph.i19, label %ShutdownWorkersHard.exit

.lr.ph.i19:                                       ; preds = %GetMyPSlot.exit.thread
  %23 = getelementptr inbounds nuw i8, ptr %20, i64 16
  br label %25

.preheader.i:                                     ; preds = %25
  %24 = icmp sgt i32 %30, 0
  br i1 %24, label %.lr.ph22.i, label %ShutdownWorkersHard.exit

25:                                               ; preds = %25, %.lr.ph.i19
  %indvars.iv.i20 = phi i64 [ 0, %.lr.ph.i19 ], [ %indvars.iv.next.i21, %25 ]
  %26 = load ptr, ptr %23, align 8
  %27 = getelementptr inbounds nuw %struct.ParallelSlot, ptr %26, i64 %indvars.iv.i20, i32 5
  %28 = load i32, ptr %27, align 4
  %29 = tail call i32 @close(i32 noundef %28) #18
  %indvars.iv.next.i21 = add nuw nsw i64 %indvars.iv.i20, 1
  %30 = load i32, ptr %20, align 8
  %31 = sext i32 %30 to i64
  %32 = icmp slt i64 %indvars.iv.next.i21, %31
  br i1 %32, label %25, label %.preheader.i, !llvm.loop !6

.lr.ph22.i:                                       ; preds = %.preheader.i, %38
  %.pr33.i = phi i32 [ %.pr.i, %38 ], [ %30, %.preheader.i ]
  %indvars.iv30.i = phi i64 [ %indvars.iv.next31.i, %38 ], [ 0, %.preheader.i ]
  %33 = load ptr, ptr %23, align 8
  %34 = getelementptr inbounds nuw %struct.ParallelSlot, ptr %33, i64 %indvars.iv30.i, i32 8
  %35 = load i32, ptr %34, align 8
  %.not.i = icmp eq i32 %35, 0
  br i1 %.not.i, label %38, label %36

36:                                               ; preds = %.lr.ph22.i
  %37 = tail call i32 @kill(i32 noundef %35, i32 noundef 15) #18
  %.pr.pre.i = load i32, ptr %20, align 8
  br label %38

38:                                               ; preds = %36, %.lr.ph22.i
  %.pr.i = phi i32 [ %.pr.pre.i, %36 ], [ %.pr33.i, %.lr.ph22.i ]
  %indvars.iv.next31.i = add nuw nsw i64 %indvars.iv30.i, 1
  %39 = sext i32 %.pr.i to i64
  %40 = icmp slt i64 %indvars.iv.next31.i, %39
  br i1 %40, label %.lr.ph22.i, label %._crit_edge.i, !llvm.loop !7

._crit_edge.i:                                    ; preds = %38
  %41 = icmp slt i32 %.pr.i, 1
  br i1 %41, label %ShutdownWorkersHard.exit, label %.lr.ph.i.lr.ph.i.i

.lr.ph.i.lr.ph.i.i:                               ; preds = %._crit_edge.i
  %42 = getelementptr inbounds nuw i8, ptr %20, i64 8
  br label %.lr.ph.i.i.i

.lr.ph.i.i.i:                                     ; preds = %.loopexit.i.i, %.lr.ph.i.lr.ph.i.i
  %43 = phi i32 [ %.pr.i, %.lr.ph.i.lr.ph.i.i ], [ %68, %.loopexit.i.i ]
  %44 = load ptr, ptr %23, align 8
  %wide.trip.count.i.i.i = zext nneg i32 %43 to i64
  br label %46

45:                                               ; preds = %46
  %indvars.iv.next.i.i.i = add nuw nsw i64 %indvars.iv.i.i.i, 1
  %exitcond.not.i.i.i = icmp eq i64 %indvars.iv.next.i.i.i, %wide.trip.count.i.i.i
  br i1 %exitcond.not.i.i.i, label %ShutdownWorkersHard.exit, label %46, !llvm.loop !8

46:                                               ; preds = %45, %.lr.ph.i.i.i
  %indvars.iv.i.i.i = phi i64 [ 0, %.lr.ph.i.i.i ], [ %indvars.iv.next.i.i.i, %45 ]
  %47 = getelementptr inbounds nuw %struct.ParallelSlot, ptr %44, i64 %indvars.iv.i.i.i
  %48 = load i32, ptr %47, align 8
  %49 = add i32 %48, -3
  %switch.i.i.i = icmp ult i32 %49, -2
  br i1 %switch.i.i.i, label %45, label %HasEveryWorkerTerminated.exit.i.i

HasEveryWorkerTerminated.exit.i.i:                ; preds = %46
  call void @llvm.lifetime.start.p0(i64 4, ptr nonnull %3) #18
  %50 = call i32 @wait(ptr noundef nonnull %3) #18
  %51 = load i32, ptr %20, align 8
  %52 = icmp sgt i32 %51, 0
  call void @llvm.assume(i1 %52)
  %53 = load ptr, ptr %23, align 8
  %54 = add nsw i32 %51, -1
  %55 = zext nneg i32 %54 to i64
  %56 = mul nuw nsw i64 %55, 56
  %scevgep.i.i = getelementptr i8, ptr %53, i64 %56
  %wide.trip.count.i.i = zext nneg i32 %51 to i64
  br label %57

57:                                               ; preds = %64, %HasEveryWorkerTerminated.exit.i.i
  %indvars.iv.i.i = phi i64 [ 0, %HasEveryWorkerTerminated.exit.i.i ], [ %indvars.iv.next.i.i, %64 ]
  %58 = getelementptr inbounds nuw %struct.ParallelSlot, ptr %53, i64 %indvars.iv.i.i
  %59 = getelementptr inbounds nuw i8, ptr %58, i64 48
  %60 = load i32, ptr %59, align 8
  %61 = icmp eq i32 %60, %50
  br i1 %61, label %62, label %64

62:                                               ; preds = %57
  %63 = getelementptr inbounds nuw i8, ptr %58, i64 48
  store i32 0, ptr %63, align 8
  %.pre.i = and i64 %indvars.iv.i.i, 4294967295
  br label %.loopexit.i.i

64:                                               ; preds = %57
  %indvars.iv.next.i.i = add nuw nsw i64 %indvars.iv.i.i, 1
  %exitcond.not.i.i = icmp eq i64 %indvars.iv.next.i.i, %wide.trip.count.i.i
  br i1 %exitcond.not.i.i, label %.loopexit.i.i, label %57, !llvm.loop !9

.loopexit.i.i:                                    ; preds = %64, %62
  %.pre-phi.i = phi i64 [ %.pre.i, %62 ], [ %wide.trip.count.i.i, %64 ]
  %65 = phi ptr [ %58, %62 ], [ %scevgep.i.i, %64 ]
  store i32 3, ptr %65, align 8
  %66 = load ptr, ptr %42, align 8
  %67 = getelementptr inbounds nuw ptr, ptr %66, i64 %.pre-phi.i
  store ptr null, ptr %67, align 8
  call void @llvm.lifetime.end.p0(i64 4, ptr nonnull %3) #18
  %68 = load i32, ptr %20, align 8
  %69 = icmp slt i32 %68, 1
  br i1 %69, label %ShutdownWorkersHard.exit, label %.lr.ph.i.i.i, !llvm.loop !10

ShutdownWorkersHard.exit:                         ; preds = %.loopexit.i.i, %45, %GetMyPSlot.exit.thread, %.preheader.i, %._crit_edge.i
  %70 = getelementptr inbounds nuw i8, ptr %1, i64 8
  %71 = load ptr, ptr %70, align 8
  %.not17 = icmp eq ptr %71, null
  br i1 %.not17, label %81, label %72

72:                                               ; preds = %ShutdownWorkersHard.exit
  call void @DisconnectDatabase(ptr noundef nonnull %71) #18
  br label %81

73:                                               ; preds = %GetMyPSlot.exit
  %74 = getelementptr inbounds nuw %struct.ParallelSlot, ptr %19, i64 %indvars.iv.i, i32 3
  %75 = load ptr, ptr %74, align 8
  %.not18 = icmp eq ptr %75, null
  br i1 %.not18, label %81, label %76

76:                                               ; preds = %73
  tail call void @DisconnectDatabase(ptr noundef nonnull %75) #18
  br label %81

77:                                               ; preds = %2
  %78 = getelementptr inbounds nuw i8, ptr %1, i64 8
  %79 = load ptr, ptr %78, align 8
  %.not15 = icmp eq ptr %79, null
  br i1 %.not15, label %81, label %80

80:                                               ; preds = %77
  tail call void @DisconnectDatabase(ptr noundef nonnull %79) #18
  br label %81

81:                                               ; preds = %72, %ShutdownWorkersHard.exit, %76, %73, %77, %80
  ret void
}